target datalayout = "e-m:e-p270:32:32-p271:32:32-p272:64:64-i64:64-i128:128-f80:128-n8:16:32:64-S128"
target triple = "x86_64-pc-linux-gnu"

; Function Attrs: nounwind null_pointer_is_valid sspstrong uwtable
define hidden zeroext i16 @in_cksum_shouldbe(i16 noundef zeroext %0, i16 noundef zeroext %1) #0 {
  %3 = alloca i16, align 2
  %4 = alloca i16, align 2
  %5 = alloca i32, align 4
  store i16 %0, ptr %3, align 2
  store i16 %1, ptr %4, align 2
  call void @llvm.lifetime.start.p0(i64 4, ptr %5) #4
  %6 = load i16, ptr %3, align 2
  %7 = zext i16 %6 to i32
  store i32 %7, ptr %5, align 4
  %8 = load i16, ptr %4, align 2
  %9 = zext i16 %8 to i32
  %10 = ashr i32 %9, 8
  %11 = trunc i32 %10 to i16
  %12 = zext i16 %11 to i32
  %13 = load i16, ptr %4, align 2
  %14 = zext i16 %13 to i32
  %15 = shl i32 %14, 8
  %16 = trunc i32 %15 to i16
  %17 = zext i16 %16 to i32
  %18 = or i32 %12, %17
  %19 = trunc i32 %18 to i16
  %20 = zext i16 %19 to i32
  %21 = load i32, ptr %5, align 4
  %22 = add i32 %21, %20
  store i32 %22, ptr %5, align 4
  %23 = load i32, ptr %5, align 4
  %24 = and i32 %23, 65535
  %25 = load i32, ptr %5, align 4
  %26 = lshr i32 %25, 16
  %27 = add i32 %24, %26
  store i32 %27, ptr %5, align 4
  %28 = load i32, ptr %5, align 4
  %29 = and i32 %28, 65535
  %30 = load i32, ptr %5, align 4
  %31 = lshr i32 %30, 16
  %32 = add i32 %29, %31
  store i32 %32, ptr %5, align 4
  %33 = load i32, ptr %5, align 4
  %34 = icmp eq i32 %33, 65535
  br i1 %34, label %35, label %36

35:                                               ; preds = %2
  br label %38

36:                                               ; preds = %2
  %37 = load i32, ptr %5, align 4
  br label %38

38:                                               ; preds = %36, %35
  %39 = phi i32 [ 0, %35 ], [ %37, %36 ]
  %40 = trunc i32 %39 to i16
  call void @llvm.lifetime.end.p0(i64 4, ptr %5) #4
  ret i16 %40
}