; Function Attrs: mustprogress nofree norecurse nosync nounwind null_pointer_is_valid sspstrong willreturn memory(none) uwtable
define hidden zeroext i16 @in_cksum_shouldbe(i16 noundef zeroext %0, i16 noundef zeroext %1) local_unnamed_addr #5 {
  %3 = zext i16 %0 to i32
  %rev = tail call i16 @llvm.bswap.i16(i16 %1)
  %4 = zext i16 %rev to i32
  %5 = add nuw nsw i32 %4, %3
  %6 = and i32 %5, 65535
  %7 = lshr i32 %5, 16
  %8 = add nuw nsw i32 %6, %7
  %9 = and i32 %8, 65535
  %10 = lshr i32 %8, 16
  %11 = add nuw nsw i32 %9, %10
  %12 = icmp eq i32 %11, 65535
  %13 = trunc i32 %11 to i16
  %14 = select i1 %12, i16 0, i16 %13
  ret i16 %14
}